target datalayout = "e-m:e-p270:32:32-p271:32:32-p272:64:64-i64:64-i128:128-f80:128-n8:16:32:64-S128"
target triple = "x86_64-pc-linux-gnu"

; Function Attrs: mustprogress nounwind uwtable
define dso_local noundef i64 @_ZN4llvm5APInt9tcAddPartEPmmj(ptr noundef %0, i64 noundef %1, i32 noundef %2) #0 align 2 {
  %4 = alloca i64, align 8
  %5 = alloca ptr, align 8
  %6 = alloca i64, align 8
  %7 = alloca i32, align 4
  %8 = alloca i32, align 4
  store ptr %0, ptr %5, align 8
  store i64 %1, ptr %6, align 8
  store i32 %2, ptr %7, align 4
  store i32 0, ptr %8, align 4
  br label %9

9:                                                ; preds = %30, %3
  %10 = load i32, ptr %8, align 4
  %11 = load i32, ptr %7, align 4
  %12 = icmp ult i32 %10, %11
  br i1 %12, label %13, label %33

13:                                               ; preds = %9
  %14 = load i64, ptr %6, align 8
  %15 = load ptr, ptr %5, align 8
  %16 = load i32, ptr %8, align 4
  %17 = zext i32 %16 to i64
  %18 = getelementptr inbounds i64, ptr %15, i64 %17
  %19 = load i64, ptr %18, align 8
  %20 = add i64 %19, %14
  store i64 %20, ptr %18, align 8
  %21 = load ptr, ptr %5, align 8
  %22 = load i32, ptr %8, align 4
  %23 = zext i32 %22 to i64
  %24 = getelementptr inbounds i64, ptr %21, i64 %23
  %25 = load i64, ptr %24, align 8
  %26 = load i64, ptr %6, align 8
  %27 = icmp uge i64 %25, %26
  br i1 %27, label %28, label %29

28:                                               ; preds = %13
  store i64 0, ptr %4, align 8
  br label %34

29:                                               ; preds = %13
  store i64 1, ptr %6, align 8
  br label %30

30:                                               ; preds = %29
  %31 = load i32, ptr %8, align 4
  %32 = add i32 %31, 1
  store i32 %32, ptr %8, align 4
  br label %9, !llvm.loop !9

33:                                               ; preds = %9
  store i64 1, ptr %4, align 8
  br label %34

34:                                               ; preds = %33, %28
  %35 = load i64, ptr %4, align 8
  ret i64 %35
}

; Function Attrs: mustprogress nounwind uwtable
define linkonce_odr hidden noundef i64 @_ZN4llvm5APInt11tcIncrementEPmj(ptr noundef %0, i32 noundef %1) #0 comdat align 2 {
  %3 = alloca ptr, align 8
  %4 = alloca i32, align 4
  store ptr %0, ptr %3, align 8
  store i32 %1, ptr %4, align 4
  %5 = load ptr, ptr %3, align 8
  %6 = load i32, ptr %4, align 4
  %7 = call noundef i64 @_ZN4llvm5APInt9tcAddPartEPmmj(ptr noundef %5, i64 noundef 1, i32 noundef %6)
  ret i64 %7
}

; Function Attrs: mustprogress nounwind uwtable
define internal void @_ZL12tcComplementPmj(ptr noundef %0, i32 noundef %1) #0 {
  %3 = alloca ptr, align 8
  %4 = alloca i32, align 4
  %5 = alloca i32, align 4
  store ptr %0, ptr %3, align 8
  store i32 %1, ptr %4, align 4
  store i32 0, ptr %5, align 4
  br label %6

6:                                                ; preds = %21, %2
  %7 = load i32, ptr %5, align 4
  %8 = load i32, ptr %4, align 4
  %9 = icmp ult i32 %7, %8
  br i1 %9, label %10, label %24

10:                                               ; preds = %6
  %11 = load ptr, ptr %3, align 8
  %12 = load i32, ptr %5, align 4
  %13 = zext i32 %12 to i64
  %14 = getelementptr inbounds i64, ptr %11, i64 %13
  %15 = load i64, ptr %14, align 8
  %16 = xor i64 %15, -1
  %17 = load ptr, ptr %3, align 8
  %18 = load i32, ptr %5, align 4
  %19 = zext i32 %18 to i64
  %20 = getelementptr inbounds i64, ptr %17, i64 %19
  store i64 %16, ptr %20, align 8
  br label %21

21:                                               ; preds = %10
  %22 = load i32, ptr %5, align 4
  %23 = add i32 %22, 1
  store i32 %23, ptr %5, align 4
  br label %6, !llvm.loop !20

24:                                               ; preds = %6
  ret void
}

; Function Attrs: mustprogress nounwind uwtable
define dso_local void @_ZN4llvm5APInt8tcNegateEPmj(ptr noundef %0, i32 noundef %1) #0 align 2 {
  %3 = alloca ptr, align 8
  %4 = alloca i32, align 4
  store ptr %0, ptr %3, align 8
  store i32 %1, ptr %4, align 4
  %5 = load ptr, ptr %3, align 8
  %6 = load i32, ptr %4, align 4
  call void @_ZL12tcComplementPmj(ptr noundef %5, i32 noundef %6)
  %7 = load ptr, ptr %3, align 8
  %8 = load i32, ptr %4, align 4
  %9 = call noundef i64 @_ZN4llvm5APInt11tcIncrementEPmj(ptr noundef %7, i32 noundef %8)
  ret void
}