; Function Attrs: mustprogress nofree norecurse nosync nounwind memory(argmem: readwrite) uwtable
define dso_local void @_ZN4llvm5APInt8tcNegateEPmj(ptr noundef captures(none) %0, i32 noundef %1) local_unnamed_addr #5 align 2 {
  %.not.i = icmp eq i32 %1, 0
  br i1 %.not.i, label %_ZN4llvm5APInt11tcIncrementEPmj.exit, label %.lr.ph.preheader.i

.lr.ph.preheader.i:                               ; preds = %2
  %wide.trip.count.i = zext i32 %1 to i64
  br label %.lr.ph.i

.lr.ph.i:                                         ; preds = %.lr.ph.i, %.lr.ph.preheader.i
  %indvars.iv.i = phi i64 [ 0, %.lr.ph.preheader.i ], [ %indvars.iv.next.i, %.lr.ph.i ]
  %3 = getelementptr inbounds nuw i64, ptr %0, i64 %indvars.iv.i
  %4 = load i64, ptr %3, align 8
  %5 = xor i64 %4, -1
  store i64 %5, ptr %3, align 8
  %indvars.iv.next.i = add nuw nsw i64 %indvars.iv.i, 1
  %exitcond.not.i = icmp eq i64 %indvars.iv.next.i, %wide.trip.count.i
  br i1 %exitcond.not.i, label %.lr.ph.i.i, label %.lr.ph.i, !llvm.loop !25

.lr.ph.i.i:                                       ; preds = %.lr.ph.i, %.lr.ph.i.i
  %indvars.iv.i.i = phi i64 [ %indvars.iv.next.i.i, %.lr.ph.i.i ], [ 0, %.lr.ph.i ]
  %6 = getelementptr inbounds nuw i64, ptr %0, i64 %indvars.iv.i.i
  %7 = load i64, ptr %6, align 8
  %8 = add i64 %7, 1
  store i64 %8, ptr %6, align 8
  %.not.i.i = icmp ne i64 %8, 0
  %indvars.iv.next.i.i = add nuw nsw i64 %indvars.iv.i.i, 1
  %exitcond.not.i.i = icmp eq i64 %indvars.iv.next.i.i, %wide.trip.count.i
  %or.cond = select i1 %.not.i.i, i1 true, i1 %exitcond.not.i.i
  br i1 %or.cond, label %_ZN4llvm5APInt11tcIncrementEPmj.exit, label %.lr.ph.i.i, !llvm.loop !6

_ZN4llvm5APInt11tcIncrementEPmj.exit:             ; preds = %.lr.ph.i.i, %2
  ret void
}